; Function Attrs: nounwind uwtable
define i32 @SUNStepper_SetStepDirection(ptr noundef %0, double noundef %1) local_unnamed_addr #2 {
  %3 = getelementptr inbounds nuw i8, ptr %0, i64 8
  %4 = load ptr, ptr %3, align 8, !tbaa !13
  %5 = getelementptr inbounds nuw i8, ptr %4, i64 40
  %6 = load ptr, ptr %5, align 8, !tbaa !23
  %.not = icmp eq ptr %6, null
  br i1 %.not, label %9, label %7

7:                                                ; preds = %2
  %8 = tail call i32 %6(ptr noundef nonnull %0, double noundef %1) #9
  br label %9

9:                                                ; preds = %2, %7
  %.0 = phi i32 [ %8, %7 ], [ -9985, %2 ]
  ret i32 %.0
}